V!function(){$(document).ready(function(){$("#content img").each(function(t,e){var n=e.parentNode;n.setAttribute("data-lightbox","image"),n.setAttribute("data-title",e.alt)})})}(),define("js/lightbox",function(){});
p1
.